target datalayout = "e-m:e-p270:32:32-p271:32:32-p272:64:64-i64:64-i128:128-f80:128-n8:16:32:64-S128"
target triple = "x86_64-pc-linux-gnu"

@hf_s7comm_userdata_data = internal global i32 0, align 4
@.str.2434 = private unnamed_addr constant [3 x i8] c": \00", align 1

; Function Attrs: null_pointer_is_valid sspstrong uwtable
define internal i32 @s7comm_decode_ud_time_subfunc(ptr noundef %0, ptr noundef %1, i8 noundef zeroext %2, i8 noundef zeroext %3, i8 noundef zeroext %4, i32 noundef %5, i32 noundef %6) #0 {
  %8 = alloca ptr, align 8
  %9 = alloca ptr, align 8
  %10 = alloca i8, align 1
  %11 = alloca i8, align 1
  %12 = alloca i8, align 1
  %13 = alloca i32, align 4
  %14 = alloca i32, align 4
  %15 = alloca i8, align 1
  store ptr %0, ptr %8, align 8
  store ptr %1, ptr %9, align 8
  store i8 %2, ptr %10, align 1
  store i8 %3, ptr %11, align 1
  store i8 %4, ptr %12, align 1
  store i32 %5, ptr %13, align 4
  store i32 %6, ptr %14, align 4
  call void @llvm.lifetime.start.p0(i64 1, ptr %15) #8
  store i8 0, ptr %15, align 1
  %16 = load i8, ptr %11, align 1
  %17 = zext i8 %16 to i32
  switch i32 %17, label %50 [
    i32 1, label %18
    i32 3, label %18
    i32 2, label %34
    i32 4, label %34
  ]

18:                                               ; preds = %7, %7
  %19 = load i8, ptr %10, align 1
  %20 = zext i8 %19 to i32
  %21 = icmp eq i32 %20, 2
  br i1 %21, label %22, label %33

22:                                               ; preds = %18
  %23 = load i8, ptr %12, align 1
  %24 = zext i8 %23 to i32
  %25 = icmp eq i32 %24, 255
  br i1 %25, label %26, label %32

26:                                               ; preds = %22
  %27 = load ptr, ptr %9, align 8
  call void (ptr, ptr, ...) @proto_item_append_text(ptr noundef %27, ptr noundef @.str.2434)
  %28 = load ptr, ptr %8, align 8
  %29 = load ptr, ptr %9, align 8
  %30 = load i32, ptr %14, align 4
  %31 = call i32 @s7comm_add_timestamp_to_tree(ptr noundef %28, ptr noundef %29, i32 noundef %30, i1 noundef zeroext true, i1 noundef zeroext true)
  store i32 %31, ptr %14, align 4
  br label %32

32:                                               ; preds = %26, %22
  store i8 1, ptr %15, align 1
  br label %33

33:                                               ; preds = %32, %18
  br label %51

34:                                               ; preds = %7, %7
  %35 = load i8, ptr %10, align 1
  %36 = zext i8 %35 to i32
  %37 = icmp eq i32 %36, 1
  br i1 %37, label %38, label %49

38:                                               ; preds = %34
  %39 = load i8, ptr %12, align 1
  %40 = zext i8 %39 to i32
  %41 = icmp eq i32 %40, 255
  br i1 %41, label %42, label %48

42:                                               ; preds = %38
  %43 = load ptr, ptr %9, align 8
  call void (ptr, ptr, ...) @proto_item_append_text(ptr noundef %43, ptr noundef @.str.2434)
  %44 = load ptr, ptr %8, align 8
  %45 = load ptr, ptr %9, align 8
  %46 = load i32, ptr %14, align 4
  %47 = call i32 @s7comm_add_timestamp_to_tree(ptr noundef %44, ptr noundef %45, i32 noundef %46, i1 noundef zeroext true, i1 noundef zeroext true)
  store i32 %47, ptr %14, align 4
  br label %48

48:                                               ; preds = %42, %38
  store i8 1, ptr %15, align 1
  br label %49

49:                                               ; preds = %48, %34
  br label %51

50:                                               ; preds = %7
  br label %51

51:                                               ; preds = %50, %49, %33
  %52 = load i8, ptr %15, align 1, !range !6, !noundef !7
  %53 = trunc i8 %52 to i1
  %54 = zext i1 %53 to i32
  %55 = icmp eq i32 %54, 0
  br i1 %55, label %56, label %69

56:                                               ; preds = %51
  %57 = load i32, ptr %13, align 4
  %58 = icmp ugt i32 %57, 0
  br i1 %58, label %59, label %69

59:                                               ; preds = %56
  %60 = load ptr, ptr %9, align 8
  %61 = load i32, ptr @hf_s7comm_userdata_data, align 4
  %62 = load ptr, ptr %8, align 8
  %63 = load i32, ptr %14, align 4
  %64 = load i32, ptr %13, align 4
  %65 = call ptr @proto_tree_add_item(ptr noundef %60, i32 noundef %61, ptr noundef %62, i32 noundef %63, i32 noundef %64, i32 noundef 0)
  %66 = load i32, ptr %13, align 4
  %67 = load i32, ptr %14, align 4
  %68 = add i32 %67, %66
  store i32 %68, ptr %14, align 4
  br label %69

69:                                               ; preds = %59, %56, %51
  %70 = load i32, ptr %14, align 4
  call void @llvm.lifetime.end.p0(i64 1, ptr %15) #8
  ret i32 %70
}