; Function Attrs: null_pointer_is_valid sspstrong uwtable
define internal fastcc noundef i32 @s7comm_decode_ud_time_subfunc(ptr noundef %0, ptr noundef %1, i8 noundef zeroext range(i8 0, 4) %2, i8 noundef zeroext %3, i8 noundef zeroext %4, i32 noundef range(i32 1, 0) %5, i32 noundef %6) unnamed_addr #0 {
  switch i8 %3, label %20 [
    i8 1, label %8
    i8 3, label %8
    i8 2, label %14
    i8 4, label %14
  ]

8:                                                ; preds = %7, %7
  %9 = icmp eq i8 %2, 2
  br i1 %9, label %10, label %20

10:                                               ; preds = %8
  %11 = icmp eq i8 %4, -1
  br i1 %11, label %12, label %.thread

12:                                               ; preds = %10
  tail call void (ptr, ptr, ...) @proto_item_append_text(ptr noundef %1, ptr noundef nonnull @.str.2434)
  %13 = tail call fastcc i32 @s7comm_add_timestamp_to_tree(ptr noundef %0, ptr noundef %1, i32 noundef %6, i1 noundef zeroext true, i1 noundef zeroext true)
  br label %.thread

14:                                               ; preds = %7, %7
  %15 = icmp eq i8 %2, 1
  br i1 %15, label %16, label %20

16:                                               ; preds = %14
  %17 = icmp eq i8 %4, -1
  br i1 %17, label %18, label %.thread

18:                                               ; preds = %16
  tail call void (ptr, ptr, ...) @proto_item_append_text(ptr noundef %1, ptr noundef nonnull @.str.2434)
  %19 = tail call fastcc i32 @s7comm_add_timestamp_to_tree(ptr noundef %0, ptr noundef %1, i32 noundef %6, i1 noundef zeroext true, i1 noundef zeroext true)
  br label %.thread

20:                                               ; preds = %8, %14, %7
  %21 = load i32, ptr @hf_s7comm_userdata_data, align 4
  %22 = tail call ptr @proto_tree_add_item(ptr noundef %1, i32 noundef %21, ptr noundef %0, i32 noundef %6, i32 noundef %5, i32 noundef 0)
  %23 = add i32 %6, %5
  br label %.thread

.thread:                                          ; preds = %16, %18, %10, %12, %20
  %.3 = phi i32 [ %23, %20 ], [ %6, %16 ], [ %19, %18 ], [ %6, %10 ], [ %13, %12 ]
  ret i32 %.3
}